target datalayout = "e-m:e-p270:32:32-p271:32:32-p272:64:64-i64:64-i128:128-f80:128-n8:16:32:64-S128"
target triple = "x86_64-pc-linux-gnu"

%"class.sat::literal" = type { i32 }
%"class.smt::justification.base" = type <{ ptr, i8 }>
%"class.smt::justification" = type <{ ptr, i8, [7 x i8] }>
%class.ref_vector.48 = type { %class.ref_vector_core.49 }
%class.ref_vector_core.49 = type { %class.ref_manager_wrapper.50, %class.ptr_vector.51 }
%class.ref_manager_wrapper.50 = type { ptr }
%class.ptr_vector.51 = type { %class.vector.52 }
%class.vector.52 = type { ptr }
%class.ptr_vector.165 = type { %class.vector.166 }
%class.vector.166 = type { ptr }
%class.ptr_vector = type { %class.vector.3 }
%class.vector.3 = type { ptr }
%class.svector.4 = type { %class.vector.5 }
%class.vector.5 = type { ptr }
%class.obj_ref.80 = type { ptr, ptr }
%class.svector.194 = type { %class.vector.195 }
%class.vector.195 = type { ptr }
%class.ref_vector = type { %class.ref_vector_core }
%class.ref_vector_core = type { %class.ref_manager_wrapper, %class.ptr_vector }
%class.ref_manager_wrapper = type { ptr }
%class.ref_vector.151 = type { %class.ref_vector_core.152 }
%class.ref_vector_core.152 = type { %class.ref_manager_wrapper.153, %class.ptr_vector.154 }
%class.ref_manager_wrapper.153 = type { ptr }
%class.ptr_vector.154 = type { %class.vector.155 }
%class.vector.155 = type { ptr }
%"class.smt::unit_resolution_justification" = type { %"class.smt::justification.base", ptr, i32, ptr }
%"class.smt::conflict_resolution" = type <{ ptr, ptr, ptr, ptr, ptr, ptr, i32, [4 x i8], %class.svector.194, %class.ref_vector, i32, i32, %class.ptr_vector.165, i32, [4 x i8], %class.svector.286, %class.obj_pair_set, ptr, ptr, %class.svector.289, %class.obj_map.291, %class.obj_pair_map.296, %class.map.301, %class.ref_vector.48, %class.ref_vector.151, %class.obj_ref.80, %class.svector.194, %class.svector.194, %class.svector.4, %class.svector.4, %class.approx_set_tpl, [4 x i8] }>
%class.svector.286 = type { %class.vector.287 }
%class.vector.287 = type { ptr }
%class.obj_pair_set = type { %class.chashtable.288 }
%class.chashtable.288 = type { ptr, i32, i32, i32, i32, i32, i32, i32, ptr, ptr, ptr }
%class.svector.289 = type { %class.vector.290 }
%class.vector.290 = type { ptr }
%class.obj_map.291 = type { %class.core_hashtable.292 }
%class.core_hashtable.292 = type <{ ptr, i32, i32, i32, [4 x i8] }>
%class.obj_pair_map.296 = type { %class.core_hashtable.297 }
%class.core_hashtable.297 = type <{ ptr, i32, i32, i32, [4 x i8] }>
%class.map.301 = type { %class.table2map.302 }
%class.table2map.302 = type { %class.core_hashtable.303 }
%class.core_hashtable.303 = type <{ ptr, i32, i32, i32, [4 x i8] }>
%class.approx_set_tpl = type { i32 }

; Function Attrs: mustprogress uwtable
define linkonce_odr hidden noundef nonnull align 8 dereferenceable(8) ptr @_ZN6vectorIN3sat7literalELb0EjE9push_backERKS1_(ptr noundef nonnull align 8 dereferenceable(8) %0, ptr noundef nonnull align 4 dereferenceable(4) %1) #6 comdat align 2 {
  %3 = alloca ptr, align 8
  %4 = alloca ptr, align 8
  store ptr %0, ptr %3, align 8, !tbaa !793
  store ptr %1, ptr %4, align 8, !tbaa !3
  %5 = load ptr, ptr %3, align 8
  %6 = getelementptr inbounds nuw %class.vector.195, ptr %5, i32 0, i32 0
  %7 = load ptr, ptr %6, align 8, !tbaa !795
  %8 = icmp eq ptr %7, null
  br i1 %8, label %19, label %9

9:                                                ; preds = %2
  %10 = getelementptr inbounds nuw %class.vector.195, ptr %5, i32 0, i32 0
  %11 = load ptr, ptr %10, align 8, !tbaa !795
  %12 = getelementptr inbounds i32, ptr %11, i64 -1
  %13 = load i32, ptr %12, align 4, !tbaa !8
  %14 = getelementptr inbounds nuw %class.vector.195, ptr %5, i32 0, i32 0
  %15 = load ptr, ptr %14, align 8, !tbaa !795
  %16 = getelementptr inbounds i32, ptr %15, i64 -2
  %17 = load i32, ptr %16, align 4, !tbaa !8
  %18 = icmp eq i32 %13, %17
  br i1 %18, label %19, label %20

19:                                               ; preds = %9, %2
  call void @_ZN6vectorIN3sat7literalELb0EjE13expand_vectorEv(ptr noundef nonnull align 8 dereferenceable(8) %5)
  br label %20

20:                                               ; preds = %19, %9
  %21 = getelementptr inbounds nuw %class.vector.195, ptr %5, i32 0, i32 0
  %22 = load ptr, ptr %21, align 8, !tbaa !795
  %23 = getelementptr inbounds nuw %class.vector.195, ptr %5, i32 0, i32 0
  %24 = load ptr, ptr %23, align 8, !tbaa !795
  %25 = getelementptr inbounds i32, ptr %24, i64 -1
  %26 = load i32, ptr %25, align 4, !tbaa !8
  %27 = zext i32 %26 to i64
  %28 = getelementptr inbounds nuw %"class.sat::literal", ptr %22, i64 %27
  %29 = load ptr, ptr %4, align 8, !tbaa !3
  call void @llvm.memcpy.p0.p0.i64(ptr align 4 %28, ptr align 4 %29, i64 4, i1 false), !tbaa.struct !543
  %30 = getelementptr inbounds nuw %class.vector.195, ptr %5, i32 0, i32 0
  %31 = load ptr, ptr %30, align 8, !tbaa !795
  %32 = getelementptr inbounds i32, ptr %31, i64 -1
  %33 = load i32, ptr %32, align 4, !tbaa !8
  %34 = add i32 %33, 1
  store i32 %34, ptr %32, align 4, !tbaa !8
  ret ptr %5
}

; Function Attrs: mustprogress uwtable
define linkonce_odr hidden noundef nonnull align 8 dereferenceable(8) ptr @_ZN6vectorIPN3smt13justificationELb0EjE9push_backERKS2_(ptr noundef nonnull align 8 dereferenceable(8) %0, ptr noundef nonnull align 8 dereferenceable(8) %1) #6 comdat align 2 {
  %3 = alloca ptr, align 8
  %4 = alloca ptr, align 8
  store ptr %0, ptr %3, align 8, !tbaa !762
  store ptr %1, ptr %4, align 8, !tbaa !764
  %5 = load ptr, ptr %3, align 8
  %6 = getelementptr inbounds nuw %class.vector.166, ptr %5, i32 0, i32 0
  %7 = load ptr, ptr %6, align 8, !tbaa !765
  %8 = icmp eq ptr %7, null
  br i1 %8, label %19, label %9

9:                                                ; preds = %2
  %10 = getelementptr inbounds nuw %class.vector.166, ptr %5, i32 0, i32 0
  %11 = load ptr, ptr %10, align 8, !tbaa !765
  %12 = getelementptr inbounds i32, ptr %11, i64 -1
  %13 = load i32, ptr %12, align 4, !tbaa !8
  %14 = getelementptr inbounds nuw %class.vector.166, ptr %5, i32 0, i32 0
  %15 = load ptr, ptr %14, align 8, !tbaa !765
  %16 = getelementptr inbounds i32, ptr %15, i64 -2
  %17 = load i32, ptr %16, align 4, !tbaa !8
  %18 = icmp eq i32 %13, %17
  br i1 %18, label %19, label %20

19:                                               ; preds = %9, %2
  call void @_ZN6vectorIPN3smt13justificationELb0EjE13expand_vectorEv(ptr noundef nonnull align 8 dereferenceable(8) %5)
  br label %20

20:                                               ; preds = %19, %9
  %21 = getelementptr inbounds nuw %class.vector.166, ptr %5, i32 0, i32 0
  %22 = load ptr, ptr %21, align 8, !tbaa !765
  %23 = getelementptr inbounds nuw %class.vector.166, ptr %5, i32 0, i32 0
  %24 = load ptr, ptr %23, align 8, !tbaa !765
  %25 = getelementptr inbounds i32, ptr %24, i64 -1
  %26 = load i32, ptr %25, align 4, !tbaa !8
  %27 = zext i32 %26 to i64
  %28 = getelementptr inbounds nuw ptr, ptr %22, i64 %27
  %29 = load ptr, ptr %4, align 8, !tbaa !764
  %30 = load ptr, ptr %29, align 8, !tbaa !18
  store ptr %30, ptr %28, align 8, !tbaa !18
  %31 = getelementptr inbounds nuw %class.vector.166, ptr %5, i32 0, i32 0
  %32 = load ptr, ptr %31, align 8, !tbaa !765
  %33 = getelementptr inbounds i32, ptr %32, i64 -1
  %34 = load i32, ptr %33, align 4, !tbaa !8
  %35 = add i32 %34, 1
  store i32 %35, ptr %33, align 4, !tbaa !8
  ret ptr %5
}

; Function Attrs: mustprogress nounwind uwtable
define linkonce_odr hidden void @_ZN3smt13justification8set_markEv(ptr noundef nonnull align 8 dereferenceable(9) %0) #4 comdat align 2 {
  %2 = alloca ptr, align 8
  store ptr %0, ptr %2, align 8, !tbaa !18
  %3 = load ptr, ptr %2, align 8
  %4 = getelementptr inbounds nuw %"class.smt::justification", ptr %3, i32 0, i32 1
  %5 = load i8, ptr %4, align 8
  %6 = and i8 %5, -2
  %7 = or i8 %6, 1
  store i8 %7, ptr %4, align 8
  ret void
}

; Function Attrs: mustprogress nounwind uwtable
define linkonce_odr hidden noundef zeroext i1 @_ZNK3smt13justification9is_markedEv(ptr noundef nonnull align 8 dereferenceable(9) %0) #4 comdat align 2 {
  %2 = alloca ptr, align 8
  store ptr %0, ptr %2, align 8, !tbaa !18
  %3 = load ptr, ptr %2, align 8
  %4 = getelementptr inbounds nuw %"class.smt::justification", ptr %3, i32 0, i32 1
  %5 = load i8, ptr %4, align 8
  %6 = and i8 %5, 1
  %7 = zext i8 %6 to i32
  %8 = icmp ne i32 %7, 0
  ret i1 %8
}

; Function Attrs: mustprogress uwtable
define linkonce_odr hidden void @_ZN3smt19conflict_resolution12mark_literalEN3sat7literalE(ptr noundef nonnull align 8 dereferenceable(356) %0, i32 %1) #6 comdat align 2 {
  %3 = alloca %"class.sat::literal", align 4
  %4 = alloca ptr, align 8
  %5 = getelementptr inbounds nuw %"class.sat::literal", ptr %3, i32 0, i32 0
  store i32 %1, ptr %5, align 4
  store ptr %0, ptr %4, align 8, !tbaa !533
  %6 = load ptr, ptr %4, align 8
  %7 = getelementptr inbounds nuw %"class.smt::conflict_resolution", ptr %6, i32 0, i32 17
  %8 = load ptr, ptr %7, align 8, !tbaa !546
  %9 = call noundef nonnull align 8 dereferenceable(8) ptr @_ZN6vectorIN3sat7literalELb0EjE9push_backERKS1_(ptr noundef nonnull align 8 dereferenceable(8) %8, ptr noundef nonnull align 4 dereferenceable(4) %3)
  ret void
}

; Function Attrs: mustprogress uwtable
define linkonce_odr hidden void @_ZN3smt19conflict_resolution18mark_justificationEPNS_13justificationE(ptr noundef nonnull align 8 dereferenceable(356) %0, ptr noundef %1) #6 comdat align 2 {
  %3 = alloca ptr, align 8
  %4 = alloca ptr, align 8
  store ptr %0, ptr %3, align 8, !tbaa !533
  store ptr %1, ptr %4, align 8, !tbaa !18
  %5 = load ptr, ptr %3, align 8
  %6 = load ptr, ptr %4, align 8, !tbaa !18
  %7 = call noundef zeroext i1 @_ZNK3smt13justification9is_markedEv(ptr noundef nonnull align 8 dereferenceable(9) %6)
  br i1 %7, label %12, label %8

8:                                                ; preds = %2
  %9 = load ptr, ptr %4, align 8, !tbaa !18
  call void @_ZN3smt13justification8set_markEv(ptr noundef nonnull align 8 dereferenceable(9) %9)
  %10 = getelementptr inbounds nuw %"class.smt::conflict_resolution", ptr %5, i32 0, i32 12
  %11 = call noundef nonnull align 8 dereferenceable(8) ptr @_ZN6vectorIPN3smt13justificationELb0EjE9push_backERKS2_(ptr noundef nonnull align 8 dereferenceable(8) %10, ptr noundef nonnull align 8 dereferenceable(8) %4)
  br label %12

12:                                               ; preds = %8, %2
  ret void
}

; Function Attrs: mustprogress uwtable
define hidden void @_ZN3smt29unit_resolution_justification15get_antecedentsERNS_19conflict_resolutionE(ptr noundef nonnull align 8 dereferenceable(40) %0, ptr noundef nonnull align 8 dereferenceable(356) %1) unnamed_addr #6 align 2 {
  %3 = alloca ptr, align 8
  %4 = alloca ptr, align 8
  %5 = alloca i32, align 4
  %6 = alloca %"class.sat::literal", align 4
  store ptr %0, ptr %3, align 8, !tbaa !534
  store ptr %1, ptr %4, align 8, !tbaa !533
  %7 = load ptr, ptr %3, align 8
  %8 = getelementptr inbounds nuw %"class.smt::unit_resolution_justification", ptr %7, i32 0, i32 1
  %9 = load ptr, ptr %8, align 8, !tbaa !536
  %10 = icmp ne ptr %9, null
  br i1 %10, label %11, label %15

11:                                               ; preds = %2
  %12 = load ptr, ptr %4, align 8, !tbaa !533
  %13 = getelementptr inbounds nuw %"class.smt::unit_resolution_justification", ptr %7, i32 0, i32 1
  %14 = load ptr, ptr %13, align 8, !tbaa !536
  call void @_ZN3smt19conflict_resolution18mark_justificationEPNS_13justificationE(ptr noundef nonnull align 8 dereferenceable(356) %12, ptr noundef %14)
  br label %15

15:                                               ; preds = %11, %2
  call void @llvm.lifetime.start.p0(i64 4, ptr %5) #3
  store i32 0, ptr %5, align 4, !tbaa !8
  br label %16

16:                                               ; preds = %31, %15
  %17 = load i32, ptr %5, align 4, !tbaa !8
  %18 = getelementptr inbounds nuw %"class.smt::unit_resolution_justification", ptr %7, i32 0, i32 2
  %19 = load i32, ptr %18, align 8, !tbaa !538
  %20 = icmp ult i32 %17, %19
  br i1 %20, label %22, label %21

21:                                               ; preds = %16
  call void @llvm.lifetime.end.p0(i64 4, ptr %5) #3
  br label %34

22:                                               ; preds = %16
  %23 = load ptr, ptr %4, align 8, !tbaa !533
  %24 = getelementptr inbounds nuw %"class.smt::unit_resolution_justification", ptr %7, i32 0, i32 3
  %25 = load ptr, ptr %24, align 8, !tbaa !540
  %26 = load i32, ptr %5, align 4, !tbaa !8
  %27 = zext i32 %26 to i64
  %28 = getelementptr inbounds nuw %"class.sat::literal", ptr %25, i64 %27
  call void @llvm.memcpy.p0.p0.i64(ptr align 4 %6, ptr align 4 %28, i64 4, i1 false), !tbaa.struct !543
  %29 = getelementptr inbounds nuw %"class.sat::literal", ptr %6, i32 0, i32 0
  %30 = load i32, ptr %29, align 4
  call void @_ZN3smt19conflict_resolution12mark_literalEN3sat7literalE(ptr noundef nonnull align 8 dereferenceable(356) %23, i32 %30)
  br label %31

31:                                               ; preds = %22
  %32 = load i32, ptr %5, align 4, !tbaa !8
  %33 = add i32 %32, 1
  store i32 %33, ptr %5, align 4, !tbaa !8
  br label %16, !llvm.loop !544

34:                                               ; preds = %21
  ret void
}