; Function Attrs: mustprogress uwtable
define hidden void @_ZN3smt29unit_resolution_justification15get_antecedentsERNS_19conflict_resolutionE(ptr noundef nonnull readonly align 8 captures(none) dereferenceable(40) %0, ptr noundef nonnull align 8 dereferenceable(356) %1) unnamed_addr #5 align 2 {
  %3 = getelementptr inbounds nuw i8, ptr %0, i64 16
  %4 = load ptr, ptr %3, align 8, !tbaa !15
  %.not = icmp eq ptr %4, null
  br i1 %.not, label %_ZN3smt19conflict_resolution18mark_justificationEPNS_13justificationE.exit, label %5

5:                                                ; preds = %2
  %6 = getelementptr inbounds nuw i8, ptr %4, i64 8
  %7 = load i8, ptr %6, align 8
  %8 = and i8 %7, 1
  %.not.i = icmp eq i8 %8, 0
  br i1 %.not.i, label %9, label %_ZN3smt19conflict_resolution18mark_justificationEPNS_13justificationE.exit

9:                                                ; preds = %5
  %10 = or disjoint i8 %7, 1
  store i8 %10, ptr %6, align 8
  %11 = getelementptr inbounds nuw i8, ptr %1, i64 88
  %12 = load ptr, ptr %11, align 8, !tbaa !25
  %13 = icmp eq ptr %12, null
  br i1 %13, label %20, label %14

14:                                               ; preds = %9
  %15 = getelementptr inbounds i8, ptr %12, i64 -4
  %16 = load i32, ptr %15, align 4, !tbaa !29
  %17 = getelementptr inbounds i8, ptr %12, i64 -8
  %18 = load i32, ptr %17, align 4, !tbaa !29
  %19 = icmp eq i32 %16, %18
  br i1 %19, label %20, label %_ZN6vectorIPN3smt13justificationELb0EjE9push_backERKS2_.exit.i

20:                                               ; preds = %14, %9
  tail call void @_ZN6vectorIPN3smt13justificationELb0EjE13expand_vectorEv(ptr noundef nonnull align 8 dereferenceable(8) %11)
  %.pre.i.i = load ptr, ptr %11, align 8, !tbaa !25
  %.phi.trans.insert.i.i = getelementptr inbounds i8, ptr %.pre.i.i, i64 -4
  %.pre2.i.i = load i32, ptr %.phi.trans.insert.i.i, align 4, !tbaa !29
  br label %_ZN6vectorIPN3smt13justificationELb0EjE9push_backERKS2_.exit.i

_ZN6vectorIPN3smt13justificationELb0EjE9push_backERKS2_.exit.i: ; preds = %20, %14
  %21 = phi i32 [ %.pre2.i.i, %20 ], [ %16, %14 ]
  %22 = phi ptr [ %.pre.i.i, %20 ], [ %12, %14 ]
  %23 = getelementptr inbounds i8, ptr %22, i64 -4
  %24 = zext i32 %21 to i64
  %25 = getelementptr inbounds nuw ptr, ptr %22, i64 %24
  store ptr %4, ptr %25, align 8, !tbaa !30
  %26 = add i32 %21, 1
  store i32 %26, ptr %23, align 4, !tbaa !29
  br label %_ZN3smt19conflict_resolution18mark_justificationEPNS_13justificationE.exit

_ZN3smt19conflict_resolution18mark_justificationEPNS_13justificationE.exit: ; preds = %_ZN6vectorIPN3smt13justificationELb0EjE9push_backERKS2_.exit.i, %5, %2
  %27 = getelementptr inbounds nuw i8, ptr %0, i64 24
  %28 = load i32, ptr %27, align 8, !tbaa !19
  %.not10 = icmp eq i32 %28, 0
  br i1 %.not10, label %._crit_edge, label %.lr.ph

.lr.ph:                                           ; preds = %_ZN3smt19conflict_resolution18mark_justificationEPNS_13justificationE.exit
  %29 = getelementptr inbounds nuw i8, ptr %0, i64 32
  %30 = getelementptr inbounds nuw i8, ptr %1, i64 176
  br label %31

._crit_edge:                                      ; preds = %_ZN3smt19conflict_resolution12mark_literalEN3sat7literalE.exit, %_ZN3smt19conflict_resolution18mark_justificationEPNS_13justificationE.exit
  ret void

31:                                               ; preds = %.lr.ph, %_ZN3smt19conflict_resolution12mark_literalEN3sat7literalE.exit
  %indvars.iv = phi i64 [ 0, %.lr.ph ], [ %indvars.iv.next, %_ZN3smt19conflict_resolution12mark_literalEN3sat7literalE.exit ]
  %32 = load ptr, ptr %29, align 8, !tbaa !22
  %33 = getelementptr inbounds nuw %"class.sat::literal", ptr %32, i64 %indvars.iv
  %.sroa.0.0.copyload = load i32, ptr %33, align 4, !tbaa !29
  %34 = load ptr, ptr %30, align 8, !tbaa !31
  %35 = load ptr, ptr %34, align 8, !tbaa !84
  %36 = icmp eq ptr %35, null
  br i1 %36, label %43, label %37

37:                                               ; preds = %31
  %38 = getelementptr inbounds i8, ptr %35, i64 -4
  %39 = load i32, ptr %38, align 4, !tbaa !29
  %40 = getelementptr inbounds i8, ptr %35, i64 -8
  %41 = load i32, ptr %40, align 4, !tbaa !29
  %42 = icmp eq i32 %39, %41
  br i1 %42, label %43, label %_ZN3smt19conflict_resolution12mark_literalEN3sat7literalE.exit

43:                                               ; preds = %37, %31
  tail call void @_ZN6vectorIN3sat7literalELb0EjE13expand_vectorEv(ptr noundef nonnull align 8 dereferenceable(8) %34)
  %.pre.i.i6 = load ptr, ptr %34, align 8, !tbaa !84
  %.phi.trans.insert.i.i7 = getelementptr inbounds i8, ptr %.pre.i.i6, i64 -4
  %.pre2.i.i8 = load i32, ptr %.phi.trans.insert.i.i7, align 4, !tbaa !29
  br label %_ZN3smt19conflict_resolution12mark_literalEN3sat7literalE.exit

_ZN3smt19conflict_resolution12mark_literalEN3sat7literalE.exit: ; preds = %37, %43
  %44 = phi i32 [ %.pre2.i.i8, %43 ], [ %39, %37 ]
  %45 = phi ptr [ %.pre.i.i6, %43 ], [ %35, %37 ]
  %46 = getelementptr inbounds i8, ptr %45, i64 -4
  %47 = zext i32 %44 to i64
  %48 = getelementptr inbounds nuw %"class.sat::literal", ptr %45, i64 %47
  store i32 %.sroa.0.0.copyload, ptr %48, align 4, !tbaa !29
  %49 = add i32 %44, 1
  store i32 %49, ptr %46, align 4, !tbaa !29
  %indvars.iv.next = add nuw nsw i64 %indvars.iv, 1
  %50 = load i32, ptr %27, align 8, !tbaa !19
  %51 = zext i32 %50 to i64
  %52 = icmp samesign ult i64 %indvars.iv.next, %51
  br i1 %52, label %31, label %._crit_edge, !llvm.loop !85
}